target datalayout = "e-m:e-p270:32:32-p271:32:32-p272:64:64-i64:64-i128:128-f80:128-n8:16:32:64-S128"
target triple = "x86_64-pc-linux-gnu"

%struct.pmix_object_t = type { %union.pthread_mutex_t, ptr, i32, %struct.pmix_tma }
%union.pthread_mutex_t = type { %struct.__pthread_mutex_s }
%struct.__pthread_mutex_s = type { i32, i32, i32, i32, i32, i16, i16, %struct.__pthread_internal_list }
%struct.__pthread_internal_list = type { ptr, ptr }
%struct.pmix_tma = type { ptr, ptr, ptr, ptr, ptr, ptr, ptr, ptr }
%struct.pmix_proc = type { [256 x i8], i32 }
%struct.pmix_class_t = type { ptr, ptr, ptr, ptr, i32, i32, ptr, ptr, i64 }
%struct.timeval = type { i64, i64 }
%struct.pmix_server_req_t = type { %struct.pmix_object_t, %struct.event, i8, %struct.event, i8, i8, i8, ptr, ptr, ptr, i32, i32, i32, i32, i32, i8, i8, i8, i8, i32, i32, i32, i8, i32, ptr, i64, ptr, i64, i8, %struct.pmix_proc, %struct.pmix_proc, %struct.pmix_proc, ptr, %struct.pmix_data_buffer, ptr, ptr, ptr, ptr, ptr, ptr, ptr, ptr, ptr }
%struct.event = type { %struct.event_callback, %union.anon.0, i32, ptr, %union.anon.2, i16, i16, %struct.timeval }
%struct.event_callback = type { %struct.anon, i16, i8, i8, %union.anon, ptr }
%struct.anon = type { ptr, ptr }
%union.anon = type { ptr }
%union.anon.0 = type { %struct.anon.1 }
%struct.anon.1 = type { ptr, ptr }
%union.anon.2 = type { %struct.anon.3 }
%struct.anon.3 = type { %struct.anon.4, %struct.timeval }
%struct.anon.4 = type { ptr, ptr }
%struct.pmix_data_buffer = type { ptr, ptr, ptr, i64, i64 }

@.str.56 = private unnamed_addr constant [21 x i8] c"pthread_mutex_lock()\00", align 1

; Function Attrs: inlinehint nounwind uwtable
define internal void @pmix_tma_free(ptr noundef %0, ptr noundef %1) #4 {
  %3 = alloca ptr, align 8
  %4 = alloca ptr, align 8
  store ptr %0, ptr %3, align 8, !tbaa !68
  store ptr %1, ptr %4, align 8, !tbaa !36
  %5 = load ptr, ptr %3, align 8, !tbaa !68
  %6 = icmp ne ptr null, %5
  br i1 %6, label %7, label %13

7:                                                ; preds = %2
  %8 = load ptr, ptr %3, align 8, !tbaa !68
  %9 = getelementptr inbounds nuw %struct.pmix_tma, ptr %8, i32 0, i32 5
  %10 = load ptr, ptr %9, align 8, !tbaa !70
  %11 = load ptr, ptr %3, align 8, !tbaa !68
  %12 = load ptr, ptr %4, align 8, !tbaa !36
  call void %10(ptr noundef %11, ptr noundef %12)
  br label %15

13:                                               ; preds = %2
  %14 = load ptr, ptr %4, align 8, !tbaa !36
  call void @free(ptr noundef %14) #13
  br label %15

15:                                               ; preds = %13, %7
  ret void
}

; Function Attrs: inlinehint nounwind uwtable
define internal void @pmix_obj_run_destructors(ptr noundef %0) #4 {
  %2 = alloca ptr, align 8
  %3 = alloca ptr, align 8
  store ptr %0, ptr %2, align 8, !tbaa !55
  call void @llvm.lifetime.start.p0(i64 8, ptr %3) #13
  %4 = load ptr, ptr %2, align 8, !tbaa !55
  %5 = getelementptr inbounds nuw %struct.pmix_object_t, ptr %4, i32 0, i32 1
  %6 = load ptr, ptr %5, align 8, !tbaa !64
  %7 = getelementptr inbounds nuw %struct.pmix_class_t, ptr %6, i32 0, i32 7
  %8 = load ptr, ptr %7, align 8, !tbaa !65
  store ptr %8, ptr %3, align 8, !tbaa !36
  br label %9

9:                                                ; preds = %13, %1
  %10 = load ptr, ptr %3, align 8, !tbaa !36
  %11 = load ptr, ptr %10, align 8, !tbaa !36
  %12 = icmp ne ptr null, %11
  br i1 %12, label %13, label %19

13:                                               ; preds = %9
  %14 = load ptr, ptr %3, align 8, !tbaa !36
  %15 = load ptr, ptr %14, align 8, !tbaa !36
  %16 = load ptr, ptr %2, align 8, !tbaa !55
  call void %15(ptr noundef %16)
  %17 = load ptr, ptr %3, align 8, !tbaa !36
  %18 = getelementptr inbounds nuw ptr, ptr %17, i32 1
  store ptr %18, ptr %3, align 8, !tbaa !36
  br label %9, !llvm.loop !67

19:                                               ; preds = %9
  call void @llvm.lifetime.end.p0(i64 8, ptr %3) #13
  ret void
}

; Function Attrs: alwaysinline nounwind uwtable
define internal i32 @pmix_obj_update(ptr noundef %0, i32 noundef %1) #5 {
  %3 = alloca ptr, align 8
  %4 = alloca i32, align 4
  %5 = alloca i32, align 4
  store ptr %0, ptr %3, align 8, !tbaa !55
  store i32 %1, ptr %4, align 4, !tbaa !29
  call void @llvm.lifetime.start.p0(i64 4, ptr %5) #13
  %6 = load ptr, ptr %3, align 8, !tbaa !55
  %7 = getelementptr inbounds nuw %struct.pmix_object_t, ptr %6, i32 0, i32 0
  %8 = call i32 @pthread_mutex_lock(ptr noundef %7) #13
  store i32 %8, ptr %5, align 4, !tbaa !29
  %9 = load i32, ptr %5, align 4, !tbaa !29
  %10 = icmp eq i32 %9, 35
  br i1 %10, label %11, label %14

11:                                               ; preds = %2
  %12 = load i32, ptr %5, align 4, !tbaa !29
  %13 = call ptr @__errno_location() #15
  store i32 %12, ptr %13, align 4, !tbaa !29
  call void @perror(ptr noundef @.str.56)
  call void @abort() #16
  unreachable

14:                                               ; preds = %2
  %15 = load i32, ptr %4, align 4, !tbaa !29
  %16 = load ptr, ptr %3, align 8, !tbaa !55
  %17 = getelementptr inbounds nuw %struct.pmix_object_t, ptr %16, i32 0, i32 2
  %18 = load i32, ptr %17, align 8, !tbaa !63
  %19 = add nsw i32 %18, %15
  store i32 %19, ptr %17, align 8, !tbaa !63
  store i32 %19, ptr %5, align 4, !tbaa !29
  %20 = load ptr, ptr %3, align 8, !tbaa !55
  %21 = getelementptr inbounds nuw %struct.pmix_object_t, ptr %20, i32 0, i32 0
  %22 = call i32 @pthread_mutex_unlock(ptr noundef %21) #13
  %23 = load i32, ptr %5, align 4, !tbaa !29
  call void @llvm.lifetime.end.p0(i64 4, ptr %5) #13
  ret i32 %23
}

; Function Attrs: nounwind uwtable
define internal void @rqdes(ptr noundef %0) #0 {
  %2 = alloca ptr, align 8
  %3 = alloca ptr, align 8
  store ptr %0, ptr %2, align 8, !tbaa !36
  %4 = load ptr, ptr %2, align 8, !tbaa !36
  %5 = getelementptr inbounds nuw %struct.pmix_server_req_t, ptr %4, i32 0, i32 7
  %6 = load ptr, ptr %5, align 8, !tbaa !196
  %7 = icmp ne ptr null, %6
  br i1 %7, label %8, label %12

8:                                                ; preds = %1
  %9 = load ptr, ptr %2, align 8, !tbaa !36
  %10 = getelementptr inbounds nuw %struct.pmix_server_req_t, ptr %9, i32 0, i32 7
  %11 = load ptr, ptr %10, align 8, !tbaa !196
  call void @free(ptr noundef %11) #13
  br label %12

12:                                               ; preds = %8, %1
  %13 = load ptr, ptr %2, align 8, !tbaa !36
  %14 = getelementptr inbounds nuw %struct.pmix_server_req_t, ptr %13, i32 0, i32 24
  %15 = load ptr, ptr %14, align 8, !tbaa !134
  %16 = icmp ne ptr null, %15
  br i1 %16, label %17, label %33

17:                                               ; preds = %12
  %18 = load ptr, ptr %2, align 8, !tbaa !36
  %19 = getelementptr inbounds nuw %struct.pmix_server_req_t, ptr %18, i32 0, i32 18
  %20 = load i8, ptr %19, align 1, !tbaa !168, !range !51, !noundef !52
  %21 = trunc i8 %20 to i1
  br i1 %21, label %22, label %33

22:                                               ; preds = %17
  br label %23

23:                                               ; preds = %22
  %24 = load ptr, ptr %2, align 8, !tbaa !36
  %25 = getelementptr inbounds nuw %struct.pmix_server_req_t, ptr %24, i32 0, i32 24
  %26 = load ptr, ptr %25, align 8, !tbaa !134
  %27 = load ptr, ptr %2, align 8, !tbaa !36
  %28 = getelementptr inbounds nuw %struct.pmix_server_req_t, ptr %27, i32 0, i32 25
  %29 = load i64, ptr %28, align 8, !tbaa !135
  call void @PMIx_Info_free(ptr noundef %26, i64 noundef %29)
  %30 = load ptr, ptr %2, align 8, !tbaa !36
  %31 = getelementptr inbounds nuw %struct.pmix_server_req_t, ptr %30, i32 0, i32 24
  store ptr null, ptr %31, align 8, !tbaa !134
  br label %32

32:                                               ; preds = %23
  br label %33

33:                                               ; preds = %32, %17, %12
  %34 = load ptr, ptr %2, align 8, !tbaa !36
  %35 = getelementptr inbounds nuw %struct.pmix_server_req_t, ptr %34, i32 0, i32 8
  %36 = load ptr, ptr %35, align 8, !tbaa !197
  %37 = icmp ne ptr null, %36
  br i1 %37, label %38, label %42

38:                                               ; preds = %33
  %39 = load ptr, ptr %2, align 8, !tbaa !36
  %40 = getelementptr inbounds nuw %struct.pmix_server_req_t, ptr %39, i32 0, i32 8
  %41 = load ptr, ptr %40, align 8, !tbaa !197
  call void @free(ptr noundef %41) #13
  br label %42

42:                                               ; preds = %38, %33
  %43 = load ptr, ptr %2, align 8, !tbaa !36
  %44 = getelementptr inbounds nuw %struct.pmix_server_req_t, ptr %43, i32 0, i32 9
  %45 = load ptr, ptr %44, align 8, !tbaa !136
  %46 = icmp ne ptr null, %45
  br i1 %46, label %47, label %51

47:                                               ; preds = %42
  %48 = load ptr, ptr %2, align 8, !tbaa !36
  %49 = getelementptr inbounds nuw %struct.pmix_server_req_t, ptr %48, i32 0, i32 9
  %50 = load ptr, ptr %49, align 8, !tbaa !136
  call void @free(ptr noundef %50) #13
  br label %51

51:                                               ; preds = %47, %42
  %52 = load ptr, ptr %2, align 8, !tbaa !36
  %53 = getelementptr inbounds nuw %struct.pmix_server_req_t, ptr %52, i32 0, i32 32
  %54 = load ptr, ptr %53, align 8, !tbaa !209
  %55 = icmp ne ptr null, %54
  br i1 %55, label %56, label %86

56:                                               ; preds = %51
  br label %57

57:                                               ; preds = %56
  call void @llvm.lifetime.start.p0(i64 8, ptr %3) #13
  %58 = load ptr, ptr %2, align 8, !tbaa !36
  %59 = getelementptr inbounds nuw %struct.pmix_server_req_t, ptr %58, i32 0, i32 32
  %60 = load ptr, ptr %59, align 8, !tbaa !209
  store ptr %60, ptr %3, align 8, !tbaa !55
  %61 = load ptr, ptr %3, align 8, !tbaa !55
  %62 = call i32 @pmix_obj_update(ptr noundef %61, i32 noundef -1)
  %63 = icmp eq i32 0, %62
  br i1 %63, label %64, label %84

64:                                               ; preds = %57
  %65 = load ptr, ptr %3, align 8, !tbaa !55
  call void @pmix_obj_run_destructors(ptr noundef %65)
  %66 = load ptr, ptr %3, align 8, !tbaa !55
  %67 = getelementptr inbounds nuw %struct.pmix_object_t, ptr %66, i32 0, i32 3
  %68 = getelementptr inbounds nuw %struct.pmix_tma, ptr %67, i32 0, i32 5
  %69 = load ptr, ptr %68, align 8, !tbaa !57
  %70 = icmp ne ptr null, %69
  br i1 %70, label %71, label %77

71:                                               ; preds = %64
  %72 = load ptr, ptr %3, align 8, !tbaa !55
  %73 = getelementptr inbounds nuw %struct.pmix_object_t, ptr %72, i32 0, i32 3
  %74 = load ptr, ptr %2, align 8, !tbaa !36
  %75 = getelementptr inbounds nuw %struct.pmix_server_req_t, ptr %74, i32 0, i32 32
  %76 = load ptr, ptr %75, align 8, !tbaa !209
  call void @pmix_tma_free(ptr noundef %73, ptr noundef %76)
  br label %81

77:                                               ; preds = %64
  %78 = load ptr, ptr %2, align 8, !tbaa !36
  %79 = getelementptr inbounds nuw %struct.pmix_server_req_t, ptr %78, i32 0, i32 32
  %80 = load ptr, ptr %79, align 8, !tbaa !209
  call void @free(ptr noundef %80) #13
  br label %81

81:                                               ; preds = %77, %71
  %82 = load ptr, ptr %2, align 8, !tbaa !36
  %83 = getelementptr inbounds nuw %struct.pmix_server_req_t, ptr %82, i32 0, i32 32
  store ptr null, ptr %83, align 8, !tbaa !209
  br label %84

84:                                               ; preds = %81, %57
  call void @llvm.lifetime.end.p0(i64 8, ptr %3) #13
  br label %85

85:                                               ; preds = %84
  br label %86

86:                                               ; preds = %85, %51
  %87 = load ptr, ptr %2, align 8, !tbaa !36
  %88 = getelementptr inbounds nuw %struct.pmix_server_req_t, ptr %87, i32 0, i32 33
  call void @PMIx_Data_buffer_destruct(ptr noundef %88)
  ret void
}