; Function Attrs: nounwind uwtable
define internal void @rqdes(ptr noundef %0) #0 {
  %2 = getelementptr inbounds nuw i8, ptr %0, i64 392
  %3 = load ptr, ptr %2, align 8, !tbaa !169
  %.not = icmp eq ptr %3, null
  br i1 %.not, label %5, label %4

4:                                                ; preds = %1
  tail call void @free(ptr noundef nonnull %3) #17
  br label %5

5:                                                ; preds = %4, %1
  %6 = getelementptr inbounds nuw i8, ptr %0, i64 464
  %7 = load ptr, ptr %6, align 8, !tbaa !111
  %.not25 = icmp eq ptr %7, null
  br i1 %.not25, label %15, label %8

8:                                                ; preds = %5
  %9 = getelementptr inbounds nuw i8, ptr %0, i64 439
  %10 = load i8, ptr %9, align 1, !tbaa !150, !range !47, !noundef !48
  %11 = trunc nuw i8 %10 to i1
  br i1 %11, label %12, label %15

12:                                               ; preds = %8
  %13 = getelementptr inbounds nuw i8, ptr %0, i64 472
  %14 = load i64, ptr %13, align 8, !tbaa !112
  tail call void @PMIx_Info_free(ptr noundef nonnull %7, i64 noundef %14) #17
  store ptr null, ptr %6, align 8, !tbaa !111
  br label %15

15:                                               ; preds = %12, %8, %5
  %16 = getelementptr inbounds nuw i8, ptr %0, i64 400
  %17 = load ptr, ptr %16, align 8, !tbaa !170
  %.not26 = icmp eq ptr %17, null
  br i1 %.not26, label %19, label %18

18:                                               ; preds = %15
  tail call void @free(ptr noundef nonnull %17) #17
  br label %19

19:                                               ; preds = %18, %15
  %20 = getelementptr inbounds nuw i8, ptr %0, i64 408
  %21 = load ptr, ptr %20, align 8, !tbaa !113
  %.not27 = icmp eq ptr %21, null
  br i1 %.not27, label %23, label %22

22:                                               ; preds = %19
  tail call void @free(ptr noundef nonnull %21) #17
  br label %23

23:                                               ; preds = %22, %19
  %24 = getelementptr inbounds nuw i8, ptr %0, i64 1280
  %25 = load ptr, ptr %24, align 8, !tbaa !166
  %.not28 = icmp eq ptr %25, null
  br i1 %.not28, label %53, label %26

26:                                               ; preds = %23
  %27 = tail call i32 @pthread_mutex_lock(ptr noundef nonnull %25) #17
  %28 = icmp eq i32 %27, 35
  br i1 %28, label %29, label %pmix_obj_update.exit

29:                                               ; preds = %26
  %30 = tail call ptr @__errno_location() #19
  store i32 35, ptr %30, align 4, !tbaa !51
  tail call void @perror(ptr noundef nonnull @.str.56) #20
  tail call void @abort() #21
  unreachable

pmix_obj_update.exit:                             ; preds = %26
  %31 = getelementptr inbounds nuw i8, ptr %25, i64 48
  %32 = load i32, ptr %31, align 8, !tbaa !52
  %33 = add nsw i32 %32, -1
  store i32 %33, ptr %31, align 8, !tbaa !52
  %34 = tail call i32 @pthread_mutex_unlock(ptr noundef nonnull %25) #17
  %35 = icmp eq i32 %33, 0
  br i1 %35, label %36, label %53

36:                                               ; preds = %pmix_obj_update.exit
  %37 = getelementptr inbounds nuw i8, ptr %25, i64 40
  %38 = load ptr, ptr %37, align 8, !tbaa !53
  %39 = getelementptr inbounds nuw i8, ptr %38, i64 48
  %40 = load ptr, ptr %39, align 8, !tbaa !54
  %41 = load ptr, ptr %40, align 8, !tbaa !32
  %.not6.i = icmp eq ptr %41, null
  br i1 %.not6.i, label %pmix_obj_run_destructors.exit, label %.lr.ph.i

.lr.ph.i:                                         ; preds = %36, %.lr.ph.i
  %42 = phi ptr [ %44, %.lr.ph.i ], [ %41, %36 ]
  %.07.i = phi ptr [ %43, %.lr.ph.i ], [ %40, %36 ]
  tail call void %42(ptr noundef nonnull %25) #17
  %43 = getelementptr inbounds nuw i8, ptr %.07.i, i64 8
  %44 = load ptr, ptr %43, align 8, !tbaa !32
  %.not.i = icmp eq ptr %44, null
  br i1 %.not.i, label %pmix_obj_run_destructors.exit, label %.lr.ph.i, !llvm.loop !56

pmix_obj_run_destructors.exit:                    ; preds = %.lr.ph.i, %36
  %45 = getelementptr inbounds nuw i8, ptr %25, i64 96
  %46 = load ptr, ptr %45, align 8, !tbaa !57
  %.not29 = icmp eq ptr %46, null
  br i1 %.not29, label %50, label %47

47:                                               ; preds = %pmix_obj_run_destructors.exit
  %48 = getelementptr inbounds nuw i8, ptr %25, i64 56
  %49 = load ptr, ptr %24, align 8, !tbaa !166
  tail call void %46(ptr noundef nonnull %48, ptr noundef %49) #17
  br label %52

50:                                               ; preds = %pmix_obj_run_destructors.exit
  %51 = load ptr, ptr %24, align 8, !tbaa !166
  tail call void @free(ptr noundef %51) #17
  br label %52

52:                                               ; preds = %50, %47
  store ptr null, ptr %24, align 8, !tbaa !166
  br label %53

53:                                               ; preds = %pmix_obj_update.exit, %52, %23
  %54 = getelementptr inbounds nuw i8, ptr %0, i64 1288
  tail call void @PMIx_Data_buffer_destruct(ptr noundef nonnull %54) #17
  ret void
}